; Function Attrs: nounwind uwtable
define ptr @lean_get_init_fn_name_for(ptr noundef %0, ptr noundef %1) local_unnamed_addr #0 {
  %3 = load ptr, ptr @l_Lean_getBuiltinInitFnNameFor_x3f___closed__1, align 8, !tbaa !4
  %4 = ptrtoint ptr %1 to i64
  %5 = and i64 %4, 1
  %.not = icmp eq i64 %5, 0
  br i1 %.not, label %6, label %lean_inc.exit22

6:                                                ; preds = %2
  %.val.i = load i32, ptr %1, align 4, !tbaa !10
  %7 = icmp sgt i32 %.val.i, 0
  br i1 %7, label %8, label %10, !prof !13

8:                                                ; preds = %6
  %9 = add nuw i32 %.val.i, 1
  store i32 %9, ptr %1, align 4, !tbaa !10
  br label %lean_inc.exit22

10:                                               ; preds = %6
  %.not.i29 = icmp eq i32 %.val.i, 0
  br i1 %.not.i29, label %lean_inc.exit22, label %11

11:                                               ; preds = %10
  tail call void @lean_inc_ref_cold(ptr noundef nonnull %1) #5
  br label %lean_inc.exit22

lean_inc.exit22:                                  ; preds = %11, %10, %8, %2
  %12 = ptrtoint ptr %0 to i64
  %13 = and i64 %12, 1
  %.not38 = icmp eq i64 %13, 0
  br i1 %.not38, label %14, label %lean_inc.exit21

14:                                               ; preds = %lean_inc.exit22
  %.val.i30 = load i32, ptr %0, align 4, !tbaa !10
  %15 = icmp sgt i32 %.val.i30, 0
  br i1 %15, label %16, label %18, !prof !13

16:                                               ; preds = %14
  %17 = add nuw i32 %.val.i30, 1
  store i32 %17, ptr %0, align 4, !tbaa !10
  br label %lean_inc.exit21

18:                                               ; preds = %14
  %.not.i31 = icmp eq i32 %.val.i30, 0
  br i1 %.not.i31, label %lean_inc.exit21, label %19

19:                                               ; preds = %18
  tail call void @lean_inc_ref_cold(ptr noundef nonnull %0) #5
  br label %lean_inc.exit21

lean_inc.exit21:                                  ; preds = %19, %18, %16, %lean_inc.exit22
  %20 = tail call ptr @l_Lean_getInitFnNameForCore_x3f(ptr noundef %0, ptr noundef %3, ptr noundef %1)
  %21 = ptrtoint ptr %20 to i64
  %22 = and i64 %21, 1
  %.not.i33 = icmp eq i64 %22, 0
  br i1 %.not.i33, label %26, label %23

23:                                               ; preds = %lean_inc.exit21
  %24 = lshr i64 %21, 1
  %25 = trunc i64 %24 to i32
  br label %lean_obj_tag.exit

26:                                               ; preds = %lean_inc.exit21
  %27 = getelementptr i8, ptr %20, i64 4
  %.val.i34 = load i32, ptr %27, align 4
  %28 = lshr i32 %.val.i34, 24
  br label %lean_obj_tag.exit

lean_obj_tag.exit:                                ; preds = %23, %26
  %.0.i = phi i32 [ %25, %23 ], [ %28, %26 ]
  %29 = icmp eq i32 %.0.i, 0
  br i1 %29, label %30, label %33

30:                                               ; preds = %lean_obj_tag.exit
  %31 = load ptr, ptr @l_Lean_getRegularInitFnNameFor_x3f___closed__1, align 8, !tbaa !4
  %32 = tail call ptr @l_Lean_getInitFnNameForCore_x3f(ptr noundef %0, ptr noundef %31, ptr noundef %1)
  br label %72

33:                                               ; preds = %lean_obj_tag.exit
  br i1 %.not, label %34, label %lean_dec.exit24

34:                                               ; preds = %33
  %35 = load i32, ptr %1, align 4, !tbaa !10
  %36 = icmp sgt i32 %35, 1
  br i1 %36, label %37, label %39, !prof !13

37:                                               ; preds = %34
  %38 = add nsw i32 %35, -1
  store i32 %38, ptr %1, align 4, !tbaa !10
  br label %lean_dec.exit24

39:                                               ; preds = %34
  %.not.i = icmp eq i32 %35, 0
  br i1 %.not.i, label %lean_dec.exit24, label %40

40:                                               ; preds = %39
  tail call void @lean_dec_ref_cold(ptr noundef nonnull %1) #5
  br label %lean_dec.exit24

lean_dec.exit24:                                  ; preds = %40, %39, %37, %33
  br i1 %.not38, label %41, label %lean_dec.exit23

41:                                               ; preds = %lean_dec.exit24
  %42 = load i32, ptr %0, align 4, !tbaa !10
  %43 = icmp sgt i32 %42, 1
  br i1 %43, label %44, label %46, !prof !13

44:                                               ; preds = %41
  %45 = add nsw i32 %42, -1
  store i32 %45, ptr %0, align 4, !tbaa !10
  br label %lean_dec.exit23

46:                                               ; preds = %41
  %.not.i25 = icmp eq i32 %42, 0
  br i1 %.not.i25, label %lean_dec.exit23, label %47

47:                                               ; preds = %46
  tail call void @lean_dec_ref_cold(ptr noundef nonnull %0) #5
  br label %lean_dec.exit23

lean_dec.exit23:                                  ; preds = %47, %46, %44, %lean_dec.exit24
  %.val = load i32, ptr %20, align 4, !tbaa !10
  %48 = icmp eq i32 %.val, 1
  br i1 %48, label %72, label %49

49:                                               ; preds = %lean_dec.exit23
  %50 = getelementptr inbounds nuw i8, ptr %20, i64 8
  %51 = load ptr, ptr %50, align 8, !tbaa !4
  %52 = ptrtoint ptr %51 to i64
  %53 = and i64 %52, 1
  %.not39 = icmp eq i64 %53, 0
  br i1 %.not39, label %54, label %lean_inc.exit

54:                                               ; preds = %49
  %.val.i35 = load i32, ptr %51, align 4, !tbaa !10
  %55 = icmp sgt i32 %.val.i35, 0
  br i1 %55, label %56, label %58, !prof !13

56:                                               ; preds = %54
  %57 = add nuw i32 %.val.i35, 1
  store i32 %57, ptr %51, align 4, !tbaa !10
  br label %lean_inc.exit

58:                                               ; preds = %54
  %.not.i36 = icmp eq i32 %.val.i35, 0
  br i1 %.not.i36, label %lean_inc.exit, label %59

59:                                               ; preds = %58
  tail call void @lean_inc_ref_cold(ptr noundef nonnull %51) #5
  br label %lean_inc.exit

lean_inc.exit:                                    ; preds = %59, %58, %56, %49
  br i1 %.not.i33, label %60, label %lean_dec.exit

60:                                               ; preds = %lean_inc.exit
  %61 = load i32, ptr %20, align 4, !tbaa !10
  %62 = icmp sgt i32 %61, 1
  br i1 %62, label %63, label %65, !prof !13

63:                                               ; preds = %60
  %64 = add nsw i32 %61, -1
  store i32 %64, ptr %20, align 4, !tbaa !10
  br label %lean_dec.exit

65:                                               ; preds = %60
  %.not.i27 = icmp eq i32 %61, 0
  br i1 %.not.i27, label %lean_dec.exit, label %66

66:                                               ; preds = %65
  tail call void @lean_dec_ref_cold(ptr noundef nonnull %20) #5
  br label %lean_dec.exit

lean_dec.exit:                                    ; preds = %66, %65, %63, %lean_inc.exit
  tail call void @lean_inc_heartbeat() #5
  %67 = tail call noalias ptr @mi_malloc_small(i64 noundef 16) #5
  %68 = icmp eq ptr %67, null
  br i1 %68, label %69, label %lean_alloc_ctor.exit

69:                                               ; preds = %lean_dec.exit
  tail call void @lean_internal_panic_out_of_memory() #6
  unreachable

lean_alloc_ctor.exit:                             ; preds = %lean_dec.exit
  %70 = getelementptr inbounds nuw i8, ptr %67, i64 4
  store i32 1, ptr %67, align 4, !tbaa !10
  store i32 16842768, ptr %70, align 4
  %71 = getelementptr inbounds nuw i8, ptr %67, i64 8
  store ptr %51, ptr %71, align 8, !tbaa !4
  br label %72

72:                                               ; preds = %lean_alloc_ctor.exit, %lean_dec.exit23, %30
  %.0 = phi ptr [ %32, %30 ], [ %67, %lean_alloc_ctor.exit ], [ %20, %lean_dec.exit23 ]
  ret ptr %.0
}